target datalayout = "e-m:e-p270:32:32-p271:32:32-p272:64:64-i64:64-i128:128-f80:128-n8:16:32:64-S128"
target triple = "x86_64-pc-linux-gnu"

%struct.ldbState = type { ptr, i32, i32, ptr, ptr, ptr, [64 x i32], i32, i32, i32, ptr, i32, i32, ptr, i64, i32 }
%struct.listNode = type { ptr, ptr, ptr }
%struct.list = type { ptr, ptr, ptr, ptr, ptr, i64 }
%struct.sdshdr8 = type { i8, i8, i8, [0 x i8] }
%struct.sdshdr16 = type <{ i16, i16, i8, [0 x i8] }>
%struct.sdshdr32 = type <{ i32, i32, i8, [0 x i8] }>
%struct.sdshdr64 = type <{ i64, i64, i8, [0 x i8] }>
%struct.connection = type { ptr, i32, i32, i32, i16, i16, i16, ptr, ptr, ptr, ptr, ptr }
%struct.ConnectionType = type { ptr, ptr, ptr, ptr, ptr, ptr, ptr, ptr, ptr, ptr, ptr, ptr, ptr, ptr, ptr, ptr, ptr, ptr, ptr, ptr, ptr, ptr, ptr, ptr, ptr, ptr, ptr, ptr, ptr, ptr }

@ldb = dso_local global %struct.ldbState zeroinitializer, align 8
@.str.60 = private unnamed_addr constant [6 x i8] c"*%i\0D\0A\00", align 1
@.str.61 = private unnamed_addr constant [2 x i8] c"+\00", align 1
@.str.62 = private unnamed_addr constant [3 x i8] c"\0D\0A\00", align 1
@.str.63 = private unnamed_addr constant [3 x i8] c"  \00", align 1

; Function Attrs: inlinehint nounwind uwtable
define internal i32 @connWrite(ptr noundef %0, ptr noundef %1, i64 noundef %2) #6 {
  %4 = alloca ptr, align 8
  %5 = alloca ptr, align 8
  %6 = alloca i64, align 8
  store ptr %0, ptr %4, align 8, !tbaa !158
  store ptr %1, ptr %5, align 8, !tbaa !5
  store i64 %2, ptr %6, align 8, !tbaa !18
  %7 = load ptr, ptr %4, align 8, !tbaa !158
  %8 = getelementptr inbounds nuw %struct.connection, ptr %7, i32 0, i32 0
  %9 = load ptr, ptr %8, align 8, !tbaa !159
  %10 = getelementptr inbounds nuw %struct.ConnectionType, ptr %9, i32 0, i32 16
  %11 = load ptr, ptr %10, align 8, !tbaa !161
  %12 = load ptr, ptr %4, align 8, !tbaa !158
  %13 = load ptr, ptr %5, align 8, !tbaa !5
  %14 = load i64, ptr %6, align 8, !tbaa !18
  %15 = call i32 %11(ptr noundef %12, ptr noundef %13, i64 noundef %14)
  ret i32 %15
}

; Function Attrs: inlinehint nounwind uwtable
define internal i64 @sdslen(ptr noundef %0) #6 {
  %2 = alloca i64, align 8
  %3 = alloca ptr, align 8
  %4 = alloca i8, align 1
  %5 = alloca i32, align 4
  store ptr %0, ptr %3, align 8, !tbaa !16
  call void @llvm.lifetime.start.p0(i64 1, ptr %4) #14
  %6 = load ptr, ptr %3, align 8, !tbaa !16
  %7 = getelementptr inbounds i8, ptr %6, i64 -1
  %8 = load i8, ptr %7, align 1, !tbaa !21
  store i8 %8, ptr %4, align 1, !tbaa !21
  %9 = load i8, ptr %4, align 1, !tbaa !21
  %10 = zext i8 %9 to i32
  %11 = and i32 %10, 7
  switch i32 %11, label %40 [
    i32 0, label %12
    i32 1, label %17
    i32 2, label %23
    i32 3, label %29
    i32 4, label %35
  ]

12:                                               ; preds = %1
  %13 = load i8, ptr %4, align 1, !tbaa !21
  %14 = zext i8 %13 to i32
  %15 = ashr i32 %14, 3
  %16 = sext i32 %15 to i64
  store i64 %16, ptr %2, align 8
  store i32 1, ptr %5, align 4
  br label %41

17:                                               ; preds = %1
  %18 = load ptr, ptr %3, align 8, !tbaa !16
  %19 = getelementptr inbounds i8, ptr %18, i64 -3
  %20 = getelementptr inbounds nuw %struct.sdshdr8, ptr %19, i32 0, i32 0
  %21 = load i8, ptr %20, align 1, !tbaa !21
  %22 = zext i8 %21 to i64
  store i64 %22, ptr %2, align 8
  store i32 1, ptr %5, align 4
  br label %41

23:                                               ; preds = %1
  %24 = load ptr, ptr %3, align 8, !tbaa !16
  %25 = getelementptr inbounds i8, ptr %24, i64 -5
  %26 = getelementptr inbounds nuw %struct.sdshdr16, ptr %25, i32 0, i32 0
  %27 = load i16, ptr %26, align 1, !tbaa !109
  %28 = zext i16 %27 to i64
  store i64 %28, ptr %2, align 8
  store i32 1, ptr %5, align 4
  br label %41

29:                                               ; preds = %1
  %30 = load ptr, ptr %3, align 8, !tbaa !16
  %31 = getelementptr inbounds i8, ptr %30, i64 -9
  %32 = getelementptr inbounds nuw %struct.sdshdr32, ptr %31, i32 0, i32 0
  %33 = load i32, ptr %32, align 1, !tbaa !19
  %34 = zext i32 %33 to i64
  store i64 %34, ptr %2, align 8
  store i32 1, ptr %5, align 4
  br label %41

35:                                               ; preds = %1
  %36 = load ptr, ptr %3, align 8, !tbaa !16
  %37 = getelementptr inbounds i8, ptr %36, i64 -17
  %38 = getelementptr inbounds nuw %struct.sdshdr64, ptr %37, i32 0, i32 0
  %39 = load i64, ptr %38, align 1, !tbaa !18
  store i64 %39, ptr %2, align 8
  store i32 1, ptr %5, align 4
  br label %41

40:                                               ; preds = %1
  store i64 0, ptr %2, align 8
  store i32 1, ptr %5, align 4
  br label %41

41:                                               ; preds = %40, %35, %29, %23, %17, %12
  call void @llvm.lifetime.end.p0(i64 1, ptr %4) #14
  %42 = load i64, ptr %2, align 8
  ret i64 %42
}

; Function Attrs: nounwind uwtable
define dso_local void @ldbSendLogs() #0 {
  %1 = alloca ptr, align 8
  %2 = alloca ptr, align 8
  call void @llvm.lifetime.start.p0(i64 8, ptr %1) #14
  %3 = call ptr @sdsempty()
  store ptr %3, ptr %1, align 8, !tbaa !16
  %4 = load ptr, ptr %1, align 8, !tbaa !16
  %5 = load ptr, ptr getelementptr inbounds nuw (%struct.ldbState, ptr @ldb, i32 0, i32 3), align 8, !tbaa !34
  %6 = getelementptr inbounds nuw %struct.list, ptr %5, i32 0, i32 5
  %7 = load i64, ptr %6, align 8, !tbaa !136
  %8 = trunc i64 %7 to i32
  %9 = call ptr (ptr, ptr, ...) @sdscatfmt(ptr noundef %4, ptr noundef @.str.60, i32 noundef %8)
  store ptr %9, ptr %1, align 8, !tbaa !16
  br label %10

10:                                               ; preds = %15, %0
  %11 = load ptr, ptr getelementptr inbounds nuw (%struct.ldbState, ptr @ldb, i32 0, i32 3), align 8, !tbaa !34
  %12 = getelementptr inbounds nuw %struct.list, ptr %11, i32 0, i32 5
  %13 = load i64, ptr %12, align 8, !tbaa !136
  %14 = icmp ne i64 %13, 0
  br i1 %14, label %15, label %34

15:                                               ; preds = %10
  call void @llvm.lifetime.start.p0(i64 8, ptr %2) #14
  %16 = load ptr, ptr getelementptr inbounds nuw (%struct.ldbState, ptr @ldb, i32 0, i32 3), align 8, !tbaa !34
  %17 = getelementptr inbounds nuw %struct.list, ptr %16, i32 0, i32 0
  %18 = load ptr, ptr %17, align 8, !tbaa !137
  store ptr %18, ptr %2, align 8, !tbaa !138
  %19 = load ptr, ptr %1, align 8, !tbaa !16
  %20 = call ptr @sdscatlen(ptr noundef %19, ptr noundef @.str.61, i64 noundef 1)
  store ptr %20, ptr %1, align 8, !tbaa !16
  %21 = load ptr, ptr %2, align 8, !tbaa !138
  %22 = getelementptr inbounds nuw %struct.listNode, ptr %21, i32 0, i32 2
  %23 = load ptr, ptr %22, align 8, !tbaa !139
  %24 = call ptr @sdsmapchars(ptr noundef %23, ptr noundef @.str.62, ptr noundef @.str.63, i64 noundef 2)
  %25 = load ptr, ptr %1, align 8, !tbaa !16
  %26 = load ptr, ptr %2, align 8, !tbaa !138
  %27 = getelementptr inbounds nuw %struct.listNode, ptr %26, i32 0, i32 2
  %28 = load ptr, ptr %27, align 8, !tbaa !139
  %29 = call ptr @sdscatsds(ptr noundef %25, ptr noundef %28)
  store ptr %29, ptr %1, align 8, !tbaa !16
  %30 = load ptr, ptr %1, align 8, !tbaa !16
  %31 = call ptr @sdscatlen(ptr noundef %30, ptr noundef @.str.62, i64 noundef 2)
  store ptr %31, ptr %1, align 8, !tbaa !16
  %32 = load ptr, ptr getelementptr inbounds nuw (%struct.ldbState, ptr @ldb, i32 0, i32 3), align 8, !tbaa !34
  %33 = load ptr, ptr %2, align 8, !tbaa !138
  call void @listDelNode(ptr noundef %32, ptr noundef %33)
  call void @llvm.lifetime.end.p0(i64 8, ptr %2) #14
  br label %10, !llvm.loop !157

34:                                               ; preds = %10
  %35 = load ptr, ptr @ldb, align 8, !tbaa !74
  %36 = load ptr, ptr %1, align 8, !tbaa !16
  %37 = load ptr, ptr %1, align 8, !tbaa !16
  %38 = call i64 @sdslen(ptr noundef %37)
  %39 = call i32 @connWrite(ptr noundef %35, ptr noundef %36, i64 noundef %38)
  %40 = icmp eq i32 %39, -1
  br i1 %40, label %41, label %42

41:                                               ; preds = %34
  br label %42

42:                                               ; preds = %41, %34
  %43 = load ptr, ptr %1, align 8, !tbaa !16
  call void @sdsfree(ptr noundef %43)
  call void @llvm.lifetime.end.p0(i64 8, ptr %1) #14
  ret void
}