; Function Attrs: nounwind uwtable
define dso_local void @ldbSendLogs() local_unnamed_addr #0 {
  %1 = tail call ptr @sdsempty() #19
  %2 = load ptr, ptr getelementptr inbounds nuw (i8, ptr @ldb, i64 16), align 8, !tbaa !26
  %3 = getelementptr inbounds nuw i8, ptr %2, i64 40
  %4 = load i64, ptr %3, align 8, !tbaa !123
  %5 = trunc i64 %4 to i32
  %6 = tail call ptr (ptr, ptr, ...) @sdscatfmt(ptr noundef %1, ptr noundef nonnull @.str.60, i32 noundef %5) #19
  %7 = load ptr, ptr getelementptr inbounds nuw (i8, ptr @ldb, i64 16), align 8, !tbaa !26
  %8 = getelementptr inbounds nuw i8, ptr %7, i64 40
  %9 = load i64, ptr %8, align 8, !tbaa !123
  %.not10 = icmp eq i64 %9, 0
  br i1 %.not10, label %._crit_edge, label %.lr.ph

.lr.ph:                                           ; preds = %0, %.lr.ph
  %10 = phi ptr [ %20, %.lr.ph ], [ %7, %0 ]
  %.011 = phi ptr [ %18, %.lr.ph ], [ %6, %0 ]
  %11 = load ptr, ptr %10, align 8, !tbaa !124
  %12 = tail call ptr @sdscatlen(ptr noundef %.011, ptr noundef nonnull @.str.61, i64 noundef 1) #19
  %13 = getelementptr inbounds nuw i8, ptr %11, i64 16
  %14 = load ptr, ptr %13, align 8, !tbaa !125
  %15 = tail call ptr @sdsmapchars(ptr noundef %14, ptr noundef nonnull @.str.62, ptr noundef nonnull @.str.63, i64 noundef 2) #19
  %16 = load ptr, ptr %13, align 8, !tbaa !125
  %17 = tail call ptr @sdscatsds(ptr noundef %12, ptr noundef %16) #19
  %18 = tail call ptr @sdscatlen(ptr noundef %17, ptr noundef nonnull @.str.62, i64 noundef 2) #19
  %19 = load ptr, ptr getelementptr inbounds nuw (i8, ptr @ldb, i64 16), align 8, !tbaa !26
  tail call void @listDelNode(ptr noundef %19, ptr noundef %11) #19
  %20 = load ptr, ptr getelementptr inbounds nuw (i8, ptr @ldb, i64 16), align 8, !tbaa !26
  %21 = getelementptr inbounds nuw i8, ptr %20, i64 40
  %22 = load i64, ptr %21, align 8, !tbaa !123
  %.not = icmp eq i64 %22, 0
  br i1 %.not, label %._crit_edge, label %.lr.ph, !llvm.loop !143

._crit_edge:                                      ; preds = %.lr.ph, %0
  %.0.lcssa = phi ptr [ %6, %0 ], [ %18, %.lr.ph ]
  %23 = load ptr, ptr @ldb, align 8, !tbaa !54
  %24 = getelementptr inbounds i8, ptr %.0.lcssa, i64 -1
  %25 = load i8, ptr %24, align 1, !tbaa !13
  %26 = zext i8 %25 to i32
  %27 = and i32 %26, 7
  switch i32 %27, label %sdslen.exit [
    i32 0, label %28
    i32 1, label %31
    i32 2, label %35
    i32 3, label %39
    i32 4, label %43
  ]

28:                                               ; preds = %._crit_edge
  %29 = lshr i32 %26, 3
  %30 = zext nneg i32 %29 to i64
  br label %sdslen.exit

31:                                               ; preds = %._crit_edge
  %32 = getelementptr inbounds i8, ptr %.0.lcssa, i64 -3
  %33 = load i8, ptr %32, align 1, !tbaa !13
  %34 = zext i8 %33 to i64
  br label %sdslen.exit

35:                                               ; preds = %._crit_edge
  %36 = getelementptr inbounds i8, ptr %.0.lcssa, i64 -5
  %37 = load i16, ptr %36, align 1, !tbaa !94
  %38 = zext i16 %37 to i64
  br label %sdslen.exit

39:                                               ; preds = %._crit_edge
  %40 = getelementptr inbounds i8, ptr %.0.lcssa, i64 -9
  %41 = load i32, ptr %40, align 1, !tbaa !91
  %42 = zext i32 %41 to i64
  br label %sdslen.exit

43:                                               ; preds = %._crit_edge
  %44 = getelementptr inbounds i8, ptr %.0.lcssa, i64 -17
  %45 = load i64, ptr %44, align 1, !tbaa !95
  br label %sdslen.exit

sdslen.exit:                                      ; preds = %._crit_edge, %28, %31, %35, %39, %43
  %.0.i = phi i64 [ %45, %43 ], [ %42, %39 ], [ %38, %35 ], [ %34, %31 ], [ %30, %28 ], [ 0, %._crit_edge ]
  %46 = load ptr, ptr %23, align 8, !tbaa !144
  %47 = getelementptr inbounds nuw i8, ptr %46, i64 128
  %48 = load ptr, ptr %47, align 8, !tbaa !146
  %49 = tail call i32 %48(ptr noundef nonnull %23, ptr noundef nonnull %.0.lcssa, i64 noundef %.0.i) #19
  tail call void @sdsfree(ptr noundef nonnull %.0.lcssa) #19
  ret void
}